target datalayout = "e-m:e-p270:32:32-p271:32:32-p272:64:64-i64:64-i128:128-f80:128-n8:16:32:64-S128"
target triple = "x86_64-pc-linux-gnu"

%struct.Query = type { i32, i32, i32, i64, i8, ptr, i32, i8, i8, i8, i8, i8, i8, i8, i8, i8, i8, i8, ptr, ptr, ptr, ptr, ptr, i32, ptr, ptr, i32, ptr, ptr, ptr, ptr, ptr, i8, ptr, ptr, ptr, ptr, ptr, ptr, ptr, i32, ptr, ptr, ptr, ptr, i32, i32 }
%struct.RangeTblEntry = type { i32, ptr, ptr, i32, i32, i8, i8, i32, i32, ptr, ptr, i8, i32, i32, ptr, ptr, ptr, ptr, ptr, i8, ptr, ptr, ptr, i32, i8, ptr, ptr, ptr, ptr, double, ptr, i8, i8, ptr }
%struct.Node = type { i32 }

@.str.2 = private unnamed_addr constant [15 x i8] c"prepjointree.c\00", align 1
@.str.8 = private unnamed_addr constant [18 x i8] c"subquery is bogus\00", align 1
@__func__.is_simple_subquery = private unnamed_addr constant [19 x i8] c"is_simple_subquery\00", align 1

; Function Attrs: nounwind uwtable
define internal zeroext i1 @is_simple_subquery(ptr noundef %0, ptr noundef %1, ptr noundef %2, ptr noundef %3) #0 {
  %5 = alloca i1, align 1
  %6 = alloca ptr, align 8
  %7 = alloca ptr, align 8
  %8 = alloca ptr, align 8
  %9 = alloca ptr, align 8
  %10 = alloca i8, align 1
  %11 = alloca ptr, align 8
  %12 = alloca i32, align 4
  %13 = alloca ptr, align 8
  store ptr %0, ptr %6, align 8
  store ptr %1, ptr %7, align 8
  store ptr %2, ptr %8, align 8
  store ptr %3, ptr %9, align 8
  %14 = load ptr, ptr %7, align 8
  %15 = getelementptr inbounds nuw %struct.Node, ptr %14, i32 0, i32 0
  %16 = load i32, ptr %15, align 4
  %17 = icmp eq i32 %16, 67
  br i1 %17, label %18, label %23

18:                                               ; preds = %4
  %19 = load ptr, ptr %7, align 8
  %20 = getelementptr inbounds nuw %struct.Query, ptr %19, i32 0, i32 1
  %21 = load i32, ptr %20, align 4
  %22 = icmp ne i32 %21, 1
  br i1 %22, label %23, label %33

23:                                               ; preds = %18, %4
  br label %24

24:                                               ; preds = %23
  br i1 true, label %25, label %27

25:                                               ; preds = %24
  %26 = call zeroext i1 @errstart_cold(i32 noundef 21, ptr noundef null) #9
  br i1 %26, label %29, label %31

27:                                               ; preds = %24
  %28 = call zeroext i1 @errstart(i32 noundef 21, ptr noundef null)
  br i1 %28, label %29, label %31

29:                                               ; preds = %27, %25
  %30 = call i32 (ptr, ...) @errmsg_internal(ptr noundef @.str.8)
  call void @errfinish(ptr noundef @.str.2, i32 noundef 1662, ptr noundef @__func__.is_simple_subquery)
  br label %31

31:                                               ; preds = %29, %27, %25
  unreachable

32:                                               ; No predecessors!
  br label %33

33:                                               ; preds = %32, %18
  %34 = load ptr, ptr %7, align 8
  %35 = getelementptr inbounds nuw %struct.Query, ptr %34, i32 0, i32 42
  %36 = load ptr, ptr %35, align 8
  %37 = icmp ne ptr %36, null
  br i1 %37, label %38, label %39

38:                                               ; preds = %33
  store i1 false, ptr %5, align 1
  br label %156

39:                                               ; preds = %33
  %40 = load ptr, ptr %7, align 8
  %41 = getelementptr inbounds nuw %struct.Query, ptr %40, i32 0, i32 7
  %42 = load i8, ptr %41, align 4, !range !7, !noundef !8
  %43 = trunc i8 %42 to i1
  br i1 %43, label %99, label %44

44:                                               ; preds = %39
  %45 = load ptr, ptr %7, align 8
  %46 = getelementptr inbounds nuw %struct.Query, ptr %45, i32 0, i32 8
  %47 = load i8, ptr %46, align 1, !range !7, !noundef !8
  %48 = trunc i8 %47 to i1
  br i1 %48, label %99, label %49

49:                                               ; preds = %44
  %50 = load ptr, ptr %7, align 8
  %51 = getelementptr inbounds nuw %struct.Query, ptr %50, i32 0, i32 9
  %52 = load i8, ptr %51, align 2, !range !7, !noundef !8
  %53 = trunc i8 %52 to i1
  br i1 %53, label %99, label %54

54:                                               ; preds = %49
  %55 = load ptr, ptr %7, align 8
  %56 = getelementptr inbounds nuw %struct.Query, ptr %55, i32 0, i32 31
  %57 = load ptr, ptr %56, align 8
  %58 = icmp ne ptr %57, null
  br i1 %58, label %99, label %59

59:                                               ; preds = %54
  %60 = load ptr, ptr %7, align 8
  %61 = getelementptr inbounds nuw %struct.Query, ptr %60, i32 0, i32 33
  %62 = load ptr, ptr %61, align 8
  %63 = icmp ne ptr %62, null
  br i1 %63, label %99, label %64

64:                                               ; preds = %59
  %65 = load ptr, ptr %7, align 8
  %66 = getelementptr inbounds nuw %struct.Query, ptr %65, i32 0, i32 34
  %67 = load ptr, ptr %66, align 8
  %68 = icmp ne ptr %67, null
  br i1 %68, label %99, label %69

69:                                               ; preds = %64
  %70 = load ptr, ptr %7, align 8
  %71 = getelementptr inbounds nuw %struct.Query, ptr %70, i32 0, i32 37
  %72 = load ptr, ptr %71, align 8
  %73 = icmp ne ptr %72, null
  br i1 %73, label %99, label %74

74:                                               ; preds = %69
  %75 = load ptr, ptr %7, align 8
  %76 = getelementptr inbounds nuw %struct.Query, ptr %75, i32 0, i32 36
  %77 = load ptr, ptr %76, align 8
  %78 = icmp ne ptr %77, null
  br i1 %78, label %99, label %79

79:                                               ; preds = %74
  %80 = load ptr, ptr %7, align 8
  %81 = getelementptr inbounds nuw %struct.Query, ptr %80, i32 0, i32 38
  %82 = load ptr, ptr %81, align 8
  %83 = icmp ne ptr %82, null
  br i1 %83, label %99, label %84

84:                                               ; preds = %79
  %85 = load ptr, ptr %7, align 8
  %86 = getelementptr inbounds nuw %struct.Query, ptr %85, i32 0, i32 39
  %87 = load ptr, ptr %86, align 8
  %88 = icmp ne ptr %87, null
  br i1 %88, label %99, label %89

89:                                               ; preds = %84
  %90 = load ptr, ptr %7, align 8
  %91 = getelementptr inbounds nuw %struct.Query, ptr %90, i32 0, i32 14
  %92 = load i8, ptr %91, align 1, !range !7, !noundef !8
  %93 = trunc i8 %92 to i1
  br i1 %93, label %99, label %94

94:                                               ; preds = %89
  %95 = load ptr, ptr %7, align 8
  %96 = getelementptr inbounds nuw %struct.Query, ptr %95, i32 0, i32 18
  %97 = load ptr, ptr %96, align 8
  %98 = icmp ne ptr %97, null
  br i1 %98, label %99, label %100

99:                                               ; preds = %94, %89, %84, %79, %74, %69, %64, %59, %54, %49, %44, %39
  store i1 false, ptr %5, align 1
  br label %156

100:                                              ; preds = %94
  %101 = load ptr, ptr %8, align 8
  %102 = getelementptr inbounds nuw %struct.RangeTblEntry, ptr %101, i32 0, i32 11
  %103 = load i8, ptr %102, align 8, !range !7, !noundef !8
  %104 = trunc i8 %103 to i1
  br i1 %104, label %105, label %106

105:                                              ; preds = %100
  store i1 false, ptr %5, align 1
  br label %156

106:                                              ; preds = %100
  %107 = load ptr, ptr %8, align 8
  %108 = getelementptr inbounds nuw %struct.RangeTblEntry, ptr %107, i32 0, i32 31
  %109 = load i8, ptr %108, align 8, !range !7, !noundef !8
  %110 = trunc i8 %109 to i1
  br i1 %110, label %111, label %149

111:                                              ; preds = %106
  call void @llvm.lifetime.start.p0(i64 1, ptr %10) #8
  call void @llvm.lifetime.start.p0(i64 8, ptr %11) #8
  %112 = load ptr, ptr %9, align 8
  %113 = icmp ne ptr %112, null
  br i1 %113, label %114, label %117

114:                                              ; preds = %111
  store i8 1, ptr %10, align 1
  %115 = load ptr, ptr %9, align 8
  %116 = call ptr @get_relids_in_jointree(ptr noundef %115, i1 noundef zeroext true, i1 noundef zeroext true)
  store ptr %116, ptr %11, align 8
  br label %118

117:                                              ; preds = %111
  store i8 0, ptr %10, align 1
  store ptr null, ptr %11, align 8
  br label %118

118:                                              ; preds = %117, %114
  %119 = load ptr, ptr %6, align 8
  %120 = load ptr, ptr %7, align 8
  %121 = getelementptr inbounds nuw %struct.Query, ptr %120, i32 0, i32 21
  %122 = load ptr, ptr %121, align 8
  %123 = load i8, ptr %10, align 1, !range !7, !noundef !8
  %124 = trunc i8 %123 to i1
  %125 = load ptr, ptr %11, align 8
  %126 = call zeroext i1 @jointree_contains_lateral_outer_refs(ptr noundef %119, ptr noundef %122, i1 noundef zeroext %124, ptr noundef %125)
  br i1 %126, label %127, label %128

127:                                              ; preds = %118
  store i1 false, ptr %5, align 1
  store i32 1, ptr %12, align 4
  br label %146

128:                                              ; preds = %118
  %129 = load ptr, ptr %9, align 8
  %130 = icmp ne ptr %129, null
  br i1 %130, label %131, label %145

131:                                              ; preds = %128
  call void @llvm.lifetime.start.p0(i64 8, ptr %13) #8
  %132 = load ptr, ptr %6, align 8
  %133 = load ptr, ptr %7, align 8
  %134 = getelementptr inbounds nuw %struct.Query, ptr %133, i32 0, i32 25
  %135 = load ptr, ptr %134, align 8
  %136 = call ptr @pull_varnos_of_level(ptr noundef %132, ptr noundef %135, i32 noundef 1)
  store ptr %136, ptr %13, align 8
  %137 = load ptr, ptr %13, align 8
  %138 = load ptr, ptr %11, align 8
  %139 = call zeroext i1 @bms_is_subset(ptr noundef %137, ptr noundef %138)
  br i1 %139, label %141, label %140

140:                                              ; preds = %131
  store i1 false, ptr %5, align 1
  store i32 1, ptr %12, align 4
  br label %142

141:                                              ; preds = %131
  store i32 0, ptr %12, align 4
  br label %142

142:                                              ; preds = %141, %140
  call void @llvm.lifetime.end.p0(i64 8, ptr %13) #8
  %143 = load i32, ptr %12, align 4
  switch i32 %143, label %146 [
    i32 0, label %144
  ]

144:                                              ; preds = %142
  br label %145

145:                                              ; preds = %144, %128
  store i32 0, ptr %12, align 4
  br label %146

146:                                              ; preds = %145, %142, %127
  call void @llvm.lifetime.end.p0(i64 8, ptr %11) #8
  call void @llvm.lifetime.end.p0(i64 1, ptr %10) #8
  %147 = load i32, ptr %12, align 4
  switch i32 %147, label %158 [
    i32 0, label %148
    i32 1, label %156
  ]

148:                                              ; preds = %146
  br label %149

149:                                              ; preds = %148, %106
  %150 = load ptr, ptr %7, align 8
  %151 = getelementptr inbounds nuw %struct.Query, ptr %150, i32 0, i32 25
  %152 = load ptr, ptr %151, align 8
  %153 = call zeroext i1 @contain_volatile_functions(ptr noundef %152)
  br i1 %153, label %154, label %155

154:                                              ; preds = %149
  store i1 false, ptr %5, align 1
  br label %156

155:                                              ; preds = %149
  store i1 true, ptr %5, align 1
  br label %156

156:                                              ; preds = %155, %154, %146, %105, %99, %38
  %157 = load i1, ptr %5, align 1
  ret i1 %157

158:                                              ; preds = %146
  unreachable
}