; Function Attrs: nounwind uwtable
define internal fastcc zeroext i1 @is_simple_subquery(ptr noundef %0, ptr noundef readonly captures(none) %1, ptr noundef readonly captures(none) %2, ptr noundef captures(address_is_null) %3) unnamed_addr #0 {
  %5 = load i32, ptr %1, align 4
  %6 = icmp eq i32 %5, 67
  br i1 %6, label %7, label %10

7:                                                ; preds = %4
  %8 = getelementptr inbounds nuw i8, ptr %1, i64 4
  %9 = load i32, ptr %8, align 4
  %.not = icmp eq i32 %9, 1
  br i1 %.not, label %13, label %10

10:                                               ; preds = %7, %4
  %11 = tail call zeroext i1 @errstart_cold(i32 noundef 21, ptr noundef null) #8
  tail call void @llvm.assume(i1 %11)
  %12 = tail call i32 (ptr, ...) @errmsg_internal(ptr noundef nonnull @.str.8) #7
  tail call void @errfinish(ptr noundef nonnull @.str.2, i32 noundef 1662, ptr noundef nonnull @__func__.is_simple_subquery) #7
  unreachable

13:                                               ; preds = %7
  %14 = getelementptr inbounds nuw i8, ptr %1, i64 248
  %15 = load ptr, ptr %14, align 8
  %.not36 = icmp eq ptr %15, null
  br i1 %.not36, label %16, label %.thread50

16:                                               ; preds = %13
  %17 = getelementptr inbounds nuw i8, ptr %1, i64 44
  %18 = load i8, ptr %17, align 4, !range !4, !noundef !5
  %19 = trunc nuw i8 %18 to i1
  br i1 %19, label %.thread50, label %20

20:                                               ; preds = %16
  %21 = getelementptr inbounds nuw i8, ptr %1, i64 45
  %22 = load i8, ptr %21, align 1, !range !4, !noundef !5
  %23 = trunc nuw i8 %22 to i1
  br i1 %23, label %.thread50, label %24

24:                                               ; preds = %20
  %25 = getelementptr inbounds nuw i8, ptr %1, i64 46
  %26 = load i8, ptr %25, align 2, !range !4, !noundef !5
  %27 = trunc nuw i8 %26 to i1
  br i1 %27, label %.thread50, label %28

28:                                               ; preds = %24
  %29 = getelementptr inbounds nuw i8, ptr %1, i64 160
  %30 = load ptr, ptr %29, align 8
  %.not37 = icmp eq ptr %30, null
  br i1 %.not37, label %31, label %.thread50

31:                                               ; preds = %28
  %32 = getelementptr inbounds nuw i8, ptr %1, i64 176
  %33 = load ptr, ptr %32, align 8
  %.not38 = icmp eq ptr %33, null
  br i1 %.not38, label %34, label %.thread50

34:                                               ; preds = %31
  %35 = getelementptr inbounds nuw i8, ptr %1, i64 184
  %36 = load ptr, ptr %35, align 8
  %.not39 = icmp eq ptr %36, null
  br i1 %.not39, label %37, label %.thread50

37:                                               ; preds = %34
  %38 = getelementptr inbounds nuw i8, ptr %1, i64 208
  %39 = load ptr, ptr %38, align 8
  %.not40 = icmp eq ptr %39, null
  br i1 %.not40, label %40, label %.thread50

40:                                               ; preds = %37
  %41 = getelementptr inbounds nuw i8, ptr %1, i64 200
  %42 = load ptr, ptr %41, align 8
  %.not41 = icmp eq ptr %42, null
  br i1 %.not41, label %43, label %.thread50

43:                                               ; preds = %40
  %44 = getelementptr inbounds nuw i8, ptr %1, i64 216
  %45 = load ptr, ptr %44, align 8
  %.not42 = icmp eq ptr %45, null
  br i1 %.not42, label %46, label %.thread50

46:                                               ; preds = %43
  %47 = getelementptr inbounds nuw i8, ptr %1, i64 224
  %48 = load ptr, ptr %47, align 8
  %.not43 = icmp eq ptr %48, null
  br i1 %.not43, label %49, label %.thread50

49:                                               ; preds = %46
  %50 = getelementptr inbounds nuw i8, ptr %1, i64 51
  %51 = load i8, ptr %50, align 1, !range !4, !noundef !5
  %52 = trunc nuw i8 %51 to i1
  br i1 %52, label %.thread50, label %53

53:                                               ; preds = %49
  %54 = getelementptr inbounds nuw i8, ptr %1, i64 56
  %55 = load ptr, ptr %54, align 8
  %.not44 = icmp eq ptr %55, null
  br i1 %.not44, label %56, label %.thread50

56:                                               ; preds = %53
  %57 = getelementptr inbounds nuw i8, ptr %2, i64 64
  %58 = load i8, ptr %57, align 8, !range !4, !noundef !5
  %59 = trunc nuw i8 %58 to i1
  br i1 %59, label %.thread50, label %60

60:                                               ; preds = %56
  %61 = getelementptr inbounds nuw i8, ptr %2, i64 208
  %62 = load i8, ptr %61, align 8, !range !4, !noundef !5
  %63 = trunc nuw i8 %62 to i1
  br i1 %63, label %64, label %.thread48

64:                                               ; preds = %60
  %.not45.not = icmp eq ptr %3, null
  br i1 %.not45.not, label %.thread, label %65

65:                                               ; preds = %64
  %66 = tail call ptr @get_relids_in_jointree(ptr noundef nonnull %3, i1 noundef zeroext true, i1 noundef zeroext true)
  %67 = getelementptr inbounds nuw i8, ptr %1, i64 80
  %68 = load ptr, ptr %67, align 8
  %69 = tail call fastcc zeroext i1 @jointree_contains_lateral_outer_refs(ptr noundef %0, ptr noundef %68, i1 noundef zeroext true, ptr noundef %66)
  br i1 %69, label %.thread50, label %73

.thread:                                          ; preds = %64
  %70 = getelementptr inbounds nuw i8, ptr %1, i64 80
  %71 = load ptr, ptr %70, align 8
  %72 = tail call fastcc zeroext i1 @jointree_contains_lateral_outer_refs(ptr noundef %0, ptr noundef %71, i1 noundef zeroext false, ptr noundef null)
  br i1 %72, label %.thread50, label %.thread48

73:                                               ; preds = %65
  %74 = getelementptr inbounds nuw i8, ptr %1, i64 112
  %75 = load ptr, ptr %74, align 8
  %76 = tail call ptr @pull_varnos_of_level(ptr noundef %0, ptr noundef %75, i32 noundef 1) #7
  %77 = tail call zeroext i1 @bms_is_subset(ptr noundef %76, ptr noundef %66) #7
  br i1 %77, label %.thread48, label %.thread50

.thread48:                                        ; preds = %.thread, %73, %60
  %78 = getelementptr inbounds nuw i8, ptr %1, i64 112
  %79 = load ptr, ptr %78, align 8
  %80 = tail call zeroext i1 @contain_volatile_functions(ptr noundef %79) #7
  %not. = xor i1 %80, true
  br label %.thread50

.thread50:                                        ; preds = %.thread, %65, %73, %.thread48, %56, %16, %20, %24, %28, %31, %34, %37, %40, %43, %46, %49, %53, %13
  %.0 = phi i1 [ false, %13 ], [ false, %53 ], [ false, %49 ], [ false, %46 ], [ false, %43 ], [ false, %40 ], [ false, %37 ], [ false, %34 ], [ false, %31 ], [ false, %28 ], [ false, %24 ], [ false, %20 ], [ false, %16 ], [ false, %56 ], [ %not., %.thread48 ], [ false, %73 ], [ false, %65 ], [ false, %.thread ]
  ret i1 %.0
}